; Function Attrs: mustprogress uwtable
define void @_ZN6icu_758TimeZone12adoptDefaultEPS0_(ptr noundef %zone) local_unnamed_addr #0 align 2 personality ptr @__gxx_personality_v0 {
entry:
  %cmp.not = icmp eq ptr %zone, null
  br i1 %cmp.not, label %if.end, label %if.then

if.then:                                          ; preds = %entry
  tail call void @umtx_lock_75(ptr noundef nonnull @_ZN6icu_75L17gDefaultZoneMutexE)
  %0 = load ptr, ptr @_ZL12DEFAULT_ZONE, align 8
  store ptr %zone, ptr @_ZL12DEFAULT_ZONE, align 8
  %isnull = icmp eq ptr %0, null
  br i1 %isnull, label %delete.end, label %delete.notnull

delete.notnull:                                   ; preds = %if.then
  %vtable = load ptr, ptr %0, align 8
  %vfn = getelementptr inbounds i8, ptr %vtable, i64 8
  %1 = load ptr, ptr %vfn, align 8
  tail call void %1(ptr noundef nonnull align 8 dereferenceable(72) %0) #18
  br label %delete.end

delete.end:                                       ; preds = %delete.notnull, %if.then
  invoke void @umtx_unlock_75(ptr noundef nonnull @_ZN6icu_75L17gDefaultZoneMutexE)
          to label %_ZN6icu_755MutexD2Ev.exit unwind label %terminate.lpad.i

terminate.lpad.i:                                 ; preds = %delete.end
  %2 = landingpad { ptr, i32 }
          catch ptr null
  %3 = extractvalue { ptr, i32 } %2, 0
  tail call void @__clang_call_terminate(ptr %3) #19
  unreachable

_ZN6icu_755MutexD2Ev.exit:                        ; preds = %delete.end
  tail call void @ucln_i18n_registerCleanup_75(i32 noundef 19, ptr noundef nonnull @_ZL16timeZone_cleanupv)
  br label %if.end

if.end:                                           ; preds = %_ZN6icu_755MutexD2Ev.exit, %entry
  ret void
}